target datalayout = "e-m:e-p270:32:32-p271:32:32-p272:64:64-i64:64-i128:128-f80:128-n8:16:32:64-S128"
target triple = "x86_64-pc-linux-gnu"

%struct.traceobj_arg = type { i32, i32, i64, i64, ptr, ptr, ptr }

@tmp_trace_arg = internal global ptr null, align 8
@.str.12 = private unnamed_addr constant [39 x i8] c"== object_allocations_reporter: START\0A\00", align 1
@.str.13 = private unnamed_addr constant [37 x i8] c"== object_allocations_reporter: END\0A\00", align 1

; Function Attrs: nounwind sspstrong uwtable
define internal void @object_allocations_reporter(ptr noundef %0, ptr noundef %1) #0 {
  %3 = alloca ptr, align 8
  %4 = alloca ptr, align 8
  store ptr %0, ptr %3, align 8, !tbaa !53
  store ptr %1, ptr %4, align 8, !tbaa !32
  %5 = load ptr, ptr %3, align 8, !tbaa !53
  %6 = call i32 (ptr, i32, ptr, ...) @__fprintf_chk(ptr noundef %5, i32 noundef 1, ptr noundef @.str.12)
  %7 = load ptr, ptr @tmp_trace_arg, align 8, !tbaa !10
  %8 = icmp ne ptr %7, null
  br i1 %8, label %9, label %16

9:                                                ; preds = %2
  %10 = load ptr, ptr @tmp_trace_arg, align 8, !tbaa !10
  %11 = getelementptr inbounds nuw %struct.traceobj_arg, ptr %10, i32 0, i32 4
  %12 = load ptr, ptr %11, align 8, !tbaa !13
  %13 = load ptr, ptr %3, align 8, !tbaa !53
  %14 = ptrtoint ptr %13 to i64
  %15 = call i32 @rb_st_foreach(ptr noundef %12, ptr noundef @object_allocations_reporter_i, i64 noundef %14)
  br label %16

16:                                               ; preds = %9, %2
  %17 = load ptr, ptr %3, align 8, !tbaa !53
  %18 = call i32 (ptr, i32, ptr, ...) @__fprintf_chk(ptr noundef %17, i32 noundef 1, ptr noundef @.str.13)
  ret void
}