; Function Attrs: nounwind sspstrong uwtable
define internal void @object_allocations_reporter(ptr noundef %0, ptr readnone captures(none) %1) #0 {
  %3 = tail call i32 (ptr, i32, ptr, ...) @__fprintf_chk(ptr noundef %0, i32 noundef 1, ptr noundef nonnull @.str.12) #10
  %4 = load ptr, ptr @tmp_trace_arg, align 8, !tbaa !6
  %.not = icmp eq ptr %4, null
  br i1 %.not, label %10, label %5

5:                                                ; preds = %2
  %6 = getelementptr inbounds nuw i8, ptr %4, i64 24
  %7 = load ptr, ptr %6, align 8, !tbaa !11
  %8 = ptrtoint ptr %0 to i64
  %9 = tail call i32 @rb_st_foreach(ptr noundef %7, ptr noundef nonnull @object_allocations_reporter_i, i64 noundef %8) #10
  br label %10

10:                                               ; preds = %5, %2
  %11 = tail call i32 (ptr, i32, ptr, ...) @__fprintf_chk(ptr noundef %0, i32 noundef 1, ptr noundef nonnull @.str.13) #10
  ret void
}